; Function Attrs: mustprogress nounwind uwtable
define hidden void @_ZN24G1GCParPhaseTimesTrackerC2EP14G1GCPhaseTimesNS0_11GCParPhasesEjb(ptr nocapture noundef nonnull align 8 dereferenceable(89) %0, ptr noundef %1, i32 noundef %2, i32 noundef %3, i1 noundef zeroext %4) unnamed_addr #0 align 2 {
  %6 = zext i1 %4 to i8
  store ptr getelementptr inbounds inrange(-16, 16) (i8, ptr @_ZTV24G1GCParPhaseTimesTracker, i64 16), ptr %0, align 8
  %7 = getelementptr inbounds i8, ptr %0, i64 8
  tail call void @llvm.memset.p0.i64(ptr noundef nonnull align 8 dereferenceable(16) %7, i8 0, i64 16, i1 false)
  %8 = getelementptr inbounds i8, ptr %0, i64 24
  store i32 %2, ptr %8, align 8
  %9 = getelementptr inbounds i8, ptr %0, i64 32
  store ptr %1, ptr %9, align 8
  %10 = getelementptr inbounds i8, ptr %0, i64 40
  store i32 %3, ptr %10, align 8
  %11 = getelementptr inbounds i8, ptr %0, i64 48
  tail call void @llvm.memset.p0.i64(ptr noundef nonnull align 8 dereferenceable(19) %11, i8 0, i64 19, i1 false)
  %12 = load i8, ptr getelementptr inbounds (i8, ptr @_ZN15JfrEventSetting19_jvm_event_settingsE, i64 1769), align 1
  %13 = icmp eq i8 %12, 0
  br i1 %13, label %_ZN20EventGCPhaseParallelC2E14EventStartTime.exit, label %14

14:                                               ; preds = %5
  %15 = tail call noundef i64 @_ZN33FastUnorderedElapsedCounterSource3nowEv() #18
  store i64 %15, ptr %11, align 8
  %.pre = load ptr, ptr %9, align 8
  br label %_ZN20EventGCPhaseParallelC2E14EventStartTime.exit

_ZN20EventGCPhaseParallelC2E14EventStartTime.exit: ; preds = %5, %14
  %16 = phi ptr [ %1, %5 ], [ %.pre, %14 ]
  %17 = getelementptr inbounds i8, ptr %0, i64 88
  store i8 %6, ptr %17, align 8
  %.not = icmp eq ptr %16, null
  br i1 %.not, label %22, label %18

18:                                               ; preds = %_ZN20EventGCPhaseParallelC2E14EventStartTime.exit
  %19 = tail call { i64, i64 } @_ZN29CompositeElapsedCounterSource3nowEv() #18
  %20 = extractvalue { i64, i64 } %19, 0
  %21 = extractvalue { i64, i64 } %19, 1
  store i64 %20, ptr %7, align 8
  %.sroa.2.0..sroa_idx = getelementptr inbounds i8, ptr %0, i64 16
  store i64 %21, ptr %.sroa.2.0..sroa_idx, align 8
  br label %22

22:                                               ; preds = %18, %_ZN20EventGCPhaseParallelC2E14EventStartTime.exit
  ret void
}